target datalayout = "e-m:e-p270:32:32-p271:32:32-p272:64:64-i64:64-i128:128-f80:128-n8:16:32:64-S128"
target triple = "x86_64-pc-linux-gnu"

; Function Attrs: nounwind uwtable
define dso_local i32 @runetochar(ptr noundef %0, ptr noundef %1) #0 {
  %3 = alloca i32, align 4
  %4 = alloca ptr, align 8
  %5 = alloca ptr, align 8
  %6 = alloca i64, align 8
  %7 = alloca i32, align 4
  store ptr %0, ptr %4, align 8, !tbaa !9
  store ptr %1, ptr %5, align 8, !tbaa !4
  call void @llvm.lifetime.start.p0(i64 8, ptr %6) #2
  %8 = load ptr, ptr %5, align 8, !tbaa !4
  %9 = load i32, ptr %8, align 4, !tbaa !11
  %10 = zext i32 %9 to i64
  store i64 %10, ptr %6, align 8, !tbaa !14
  %11 = load i64, ptr %6, align 8, !tbaa !14
  %12 = icmp ule i64 %11, 127
  br i1 %12, label %13, label %18

13:                                               ; preds = %2
  %14 = load i64, ptr %6, align 8, !tbaa !14
  %15 = trunc i64 %14 to i8
  %16 = load ptr, ptr %4, align 8, !tbaa !9
  %17 = getelementptr inbounds i8, ptr %16, i64 0
  store i8 %15, ptr %17, align 1, !tbaa !13
  store i32 1, ptr %3, align 4
  store i32 1, ptr %7, align 4
  br label %95

18:                                               ; preds = %2
  %19 = load i64, ptr %6, align 8, !tbaa !14
  %20 = icmp ule i64 %19, 2047
  br i1 %20, label %21, label %34

21:                                               ; preds = %18
  %22 = load i64, ptr %6, align 8, !tbaa !14
  %23 = lshr i64 %22, 6
  %24 = or i64 192, %23
  %25 = trunc i64 %24 to i8
  %26 = load ptr, ptr %4, align 8, !tbaa !9
  %27 = getelementptr inbounds i8, ptr %26, i64 0
  store i8 %25, ptr %27, align 1, !tbaa !13
  %28 = load i64, ptr %6, align 8, !tbaa !14
  %29 = and i64 %28, 63
  %30 = or i64 128, %29
  %31 = trunc i64 %30 to i8
  %32 = load ptr, ptr %4, align 8, !tbaa !9
  %33 = getelementptr inbounds i8, ptr %32, i64 1
  store i8 %31, ptr %33, align 1, !tbaa !13
  store i32 2, ptr %3, align 4
  store i32 1, ptr %7, align 4
  br label %95

34:                                               ; preds = %18
  %35 = load i64, ptr %6, align 8, !tbaa !14
  %36 = icmp ugt i64 %35, 1114111
  br i1 %36, label %37, label %38

37:                                               ; preds = %34
  store i64 65533, ptr %6, align 8, !tbaa !14
  br label %38

38:                                               ; preds = %37, %34
  %39 = load i64, ptr %6, align 8, !tbaa !14
  %40 = icmp ule i64 55296, %39
  br i1 %40, label %41, label %45

41:                                               ; preds = %38
  %42 = load i64, ptr %6, align 8, !tbaa !14
  %43 = icmp ule i64 %42, 57343
  br i1 %43, label %44, label %45

44:                                               ; preds = %41
  store i64 65533, ptr %6, align 8, !tbaa !14
  br label %45

45:                                               ; preds = %44, %41, %38
  %46 = load i64, ptr %6, align 8, !tbaa !14
  %47 = icmp ule i64 %46, 65535
  br i1 %47, label %48, label %68

48:                                               ; preds = %45
  %49 = load i64, ptr %6, align 8, !tbaa !14
  %50 = lshr i64 %49, 12
  %51 = or i64 224, %50
  %52 = trunc i64 %51 to i8
  %53 = load ptr, ptr %4, align 8, !tbaa !9
  %54 = getelementptr inbounds i8, ptr %53, i64 0
  store i8 %52, ptr %54, align 1, !tbaa !13
  %55 = load i64, ptr %6, align 8, !tbaa !14
  %56 = lshr i64 %55, 6
  %57 = and i64 %56, 63
  %58 = or i64 128, %57
  %59 = trunc i64 %58 to i8
  %60 = load ptr, ptr %4, align 8, !tbaa !9
  %61 = getelementptr inbounds i8, ptr %60, i64 1
  store i8 %59, ptr %61, align 1, !tbaa !13
  %62 = load i64, ptr %6, align 8, !tbaa !14
  %63 = and i64 %62, 63
  %64 = or i64 128, %63
  %65 = trunc i64 %64 to i8
  %66 = load ptr, ptr %4, align 8, !tbaa !9
  %67 = getelementptr inbounds i8, ptr %66, i64 2
  store i8 %65, ptr %67, align 1, !tbaa !13
  store i32 3, ptr %3, align 4
  store i32 1, ptr %7, align 4
  br label %95

68:                                               ; preds = %45
  %69 = load i64, ptr %6, align 8, !tbaa !14
  %70 = lshr i64 %69, 18
  %71 = or i64 240, %70
  %72 = trunc i64 %71 to i8
  %73 = load ptr, ptr %4, align 8, !tbaa !9
  %74 = getelementptr inbounds i8, ptr %73, i64 0
  store i8 %72, ptr %74, align 1, !tbaa !13
  %75 = load i64, ptr %6, align 8, !tbaa !14
  %76 = lshr i64 %75, 12
  %77 = and i64 %76, 63
  %78 = or i64 128, %77
  %79 = trunc i64 %78 to i8
  %80 = load ptr, ptr %4, align 8, !tbaa !9
  %81 = getelementptr inbounds i8, ptr %80, i64 1
  store i8 %79, ptr %81, align 1, !tbaa !13
  %82 = load i64, ptr %6, align 8, !tbaa !14
  %83 = lshr i64 %82, 6
  %84 = and i64 %83, 63
  %85 = or i64 128, %84
  %86 = trunc i64 %85 to i8
  %87 = load ptr, ptr %4, align 8, !tbaa !9
  %88 = getelementptr inbounds i8, ptr %87, i64 2
  store i8 %86, ptr %88, align 1, !tbaa !13
  %89 = load i64, ptr %6, align 8, !tbaa !14
  %90 = and i64 %89, 63
  %91 = or i64 128, %90
  %92 = trunc i64 %91 to i8
  %93 = load ptr, ptr %4, align 8, !tbaa !9
  %94 = getelementptr inbounds i8, ptr %93, i64 3
  store i8 %92, ptr %94, align 1, !tbaa !13
  store i32 4, ptr %3, align 4
  store i32 1, ptr %7, align 4
  br label %95

95:                                               ; preds = %68, %48, %21, %13
  call void @llvm.lifetime.end.p0(i64 8, ptr %6) #2
  %96 = load i32, ptr %3, align 4
  ret i32 %96
}