; Function Attrs: mustprogress nofree norecurse nosync nounwind willreturn memory(argmem: readwrite) uwtable
define dso_local range(i32 1, 5) i32 @runetochar(ptr noundef writeonly captures(none) initializes((0, 1)) %0, ptr noundef readonly captures(none) %1) local_unnamed_addr #0 {
  %3 = load i32, ptr %1, align 4, !tbaa !7
  %4 = icmp ult i32 %3, 128
  br i1 %4, label %5, label %7

5:                                                ; preds = %2
  %6 = trunc nuw i32 %3 to i8
  store i8 %6, ptr %0, align 1, !tbaa !4
  br label %50

7:                                                ; preds = %2
  %8 = icmp ult i32 %3, 2048
  %9 = getelementptr inbounds nuw i8, ptr %0, i64 1
  br i1 %8, label %10, label %17

10:                                               ; preds = %7
  %11 = lshr i32 %3, 6
  %12 = trunc nuw i32 %11 to i8
  %13 = or disjoint i8 %12, -64
  store i8 %13, ptr %0, align 1, !tbaa !4
  %14 = trunc i32 %3 to i8
  %15 = and i8 %14, 63
  %16 = or disjoint i8 %15, -128
  store i8 %16, ptr %9, align 1, !tbaa !4
  br label %50

17:                                               ; preds = %7
  %18 = icmp ugt i32 %3, 1114111
  %narrow = select i1 %18, i32 65533, i32 %3
  %spec.store.select = zext i32 %narrow to i64
  %19 = and i64 %spec.store.select, 4294965248
  %or.cond = icmp eq i64 %19, 55296
  %spec.store.select2 = select i1 %or.cond, i64 65533, i64 %spec.store.select
  %20 = icmp samesign ult i64 %spec.store.select2, 65536
  br i1 %20, label %21, label %33

21:                                               ; preds = %17
  %22 = lshr i64 %spec.store.select2, 12
  %23 = trunc nuw i64 %22 to i8
  %24 = or disjoint i8 %23, -32
  store i8 %24, ptr %0, align 1, !tbaa !4
  %25 = lshr i64 %spec.store.select2, 6
  %26 = trunc i64 %25 to i8
  %27 = and i8 %26, 63
  %28 = or disjoint i8 %27, -128
  store i8 %28, ptr %9, align 1, !tbaa !4
  %29 = trunc i64 %spec.store.select2 to i8
  %30 = and i8 %29, 63
  %31 = or disjoint i8 %30, -128
  %32 = getelementptr inbounds nuw i8, ptr %0, i64 2
  store i8 %31, ptr %32, align 1, !tbaa !4
  br label %50

33:                                               ; preds = %17
  %34 = lshr i64 %spec.store.select2, 18
  %35 = trunc i64 %34 to i8
  %36 = or i8 %35, -16
  store i8 %36, ptr %0, align 1, !tbaa !4
  %37 = lshr i64 %spec.store.select2, 12
  %38 = trunc i64 %37 to i8
  %39 = and i8 %38, 63
  %40 = or disjoint i8 %39, -128
  store i8 %40, ptr %9, align 1, !tbaa !4
  %41 = lshr i64 %spec.store.select2, 6
  %42 = trunc i64 %41 to i8
  %43 = and i8 %42, 63
  %44 = or disjoint i8 %43, -128
  %45 = getelementptr inbounds nuw i8, ptr %0, i64 2
  store i8 %44, ptr %45, align 1, !tbaa !4
  %46 = trunc i64 %spec.store.select2 to i8
  %47 = and i8 %46, 63
  %48 = or disjoint i8 %47, -128
  %49 = getelementptr inbounds nuw i8, ptr %0, i64 3
  store i8 %48, ptr %49, align 1, !tbaa !4
  br label %50

50:                                               ; preds = %33, %21, %10, %5
  %.0 = phi i32 [ 1, %5 ], [ 2, %10 ], [ 3, %21 ], [ 4, %33 ]
  ret i32 %.0
}